target datalayout = "e-m:e-p270:32:32-p271:32:32-p272:64:64-i64:64-i128:128-f80:128-n8:16:32:64-S128"
target triple = "x86_64-pc-linux-gnu"

%struct.Path = type { i32, i32, ptr, ptr, ptr, i8, i8, i32, double, i32, double, double, ptr }

@seq_page_cost = dso_local global double 1.000000e+00, align 8
@cpu_operator_cost = dso_local global double 2.500000e-03, align 8
@enable_material = dso_local global i8 1, align 1
@work_mem = external global i32, align 4

; Function Attrs: nounwind uwtable
define internal double @relation_byte_size(double noundef %0, i32 noundef %1) #0 {
  %3 = alloca double, align 8
  %4 = alloca i32, align 4
  store double %0, ptr %3, align 8
  store i32 %1, ptr %4, align 4
  %5 = load double, ptr %3, align 8
  %6 = load i32, ptr %4, align 4
  %7 = sext i32 %6 to i64
  %8 = add i64 %7, 7
  %9 = and i64 %8, -8
  %10 = add i64 %9, 24
  %11 = uitofp i64 %10 to double
  %12 = fmul double %5, %11
  ret double %12
}

; Function Attrs: nounwind uwtable
define dso_local void @cost_material(ptr noundef %0, i32 noundef %1, double noundef %2, double noundef %3, double noundef %4, i32 noundef %5) #0 {
  %7 = alloca ptr, align 8
  %8 = alloca i32, align 4
  %9 = alloca double, align 8
  %10 = alloca double, align 8
  %11 = alloca double, align 8
  %12 = alloca i32, align 4
  %13 = alloca double, align 8
  %14 = alloca double, align 8
  %15 = alloca double, align 8
  %16 = alloca double, align 8
  %17 = alloca double, align 8
  store ptr %0, ptr %7, align 8
  store i32 %1, ptr %8, align 4
  store double %2, ptr %9, align 8
  store double %3, ptr %10, align 8
  store double %4, ptr %11, align 8
  store i32 %5, ptr %12, align 4
  call void @llvm.lifetime.start.p0(i64 8, ptr %13) #9
  %18 = load double, ptr %9, align 8
  store double %18, ptr %13, align 8
  call void @llvm.lifetime.start.p0(i64 8, ptr %14) #9
  %19 = load double, ptr %10, align 8
  %20 = load double, ptr %9, align 8
  %21 = fsub double %19, %20
  store double %21, ptr %14, align 8
  call void @llvm.lifetime.start.p0(i64 8, ptr %15) #9
  %22 = load double, ptr %11, align 8
  %23 = load i32, ptr %12, align 4
  %24 = call double @relation_byte_size(double noundef %22, i32 noundef %23)
  store double %24, ptr %15, align 8
  call void @llvm.lifetime.start.p0(i64 8, ptr %16) #9
  %25 = load i32, ptr @work_mem, align 4
  %26 = sext i32 %25 to i64
  %27 = mul i64 %26, 1024
  %28 = uitofp i64 %27 to double
  store double %28, ptr %16, align 8
  %29 = load double, ptr %11, align 8
  %30 = load ptr, ptr %7, align 8
  %31 = getelementptr inbounds nuw %struct.Path, ptr %30, i32 0, i32 8
  store double %29, ptr %31, align 8
  %32 = load double, ptr @cpu_operator_cost, align 8
  %33 = fmul double 2.000000e+00, %32
  %34 = load double, ptr %11, align 8
  %35 = load double, ptr %14, align 8
  %36 = call double @llvm.fmuladd.f64(double %33, double %34, double %35)
  store double %36, ptr %14, align 8
  %37 = load double, ptr %15, align 8
  %38 = load double, ptr %16, align 8
  %39 = fcmp ogt double %37, %38
  br i1 %39, label %40, label %48

40:                                               ; preds = %6
  call void @llvm.lifetime.start.p0(i64 8, ptr %17) #9
  %41 = load double, ptr %15, align 8
  %42 = fdiv double %41, 8.192000e+03
  %43 = call double @llvm.ceil.f64(double %42)
  store double %43, ptr %17, align 8
  %44 = load double, ptr @seq_page_cost, align 8
  %45 = load double, ptr %17, align 8
  %46 = load double, ptr %14, align 8
  %47 = call double @llvm.fmuladd.f64(double %44, double %45, double %46)
  store double %47, ptr %14, align 8
  call void @llvm.lifetime.end.p0(i64 8, ptr %17) #9
  br label %48

48:                                               ; preds = %40, %6
  %49 = load i32, ptr %8, align 4
  %50 = load i8, ptr @enable_material, align 1, !range !4, !noundef !5
  %51 = trunc i8 %50 to i1
  %52 = select i1 %51, i32 0, i32 1
  %53 = add i32 %49, %52
  %54 = load ptr, ptr %7, align 8
  %55 = getelementptr inbounds nuw %struct.Path, ptr %54, i32 0, i32 9
  store i32 %53, ptr %55, align 8
  %56 = load double, ptr %13, align 8
  %57 = load ptr, ptr %7, align 8
  %58 = getelementptr inbounds nuw %struct.Path, ptr %57, i32 0, i32 10
  store double %56, ptr %58, align 8
  %59 = load double, ptr %13, align 8
  %60 = load double, ptr %14, align 8
  %61 = fadd double %59, %60
  %62 = load ptr, ptr %7, align 8
  %63 = getelementptr inbounds nuw %struct.Path, ptr %62, i32 0, i32 11
  store double %61, ptr %63, align 8
  call void @llvm.lifetime.end.p0(i64 8, ptr %16) #9
  call void @llvm.lifetime.end.p0(i64 8, ptr %15) #9
  call void @llvm.lifetime.end.p0(i64 8, ptr %14) #9
  call void @llvm.lifetime.end.p0(i64 8, ptr %13) #9
  ret void
}