; Function Attrs: mustprogress nofree norecurse nosync nounwind willreturn memory(read, argmem: write, inaccessiblemem: none) uwtable
define dso_local void @cost_material(ptr noundef writeonly captures(none) initializes((40, 52), (56, 72)) %0, i32 noundef %1, double noundef %2, double noundef %3, double noundef %4, i32 noundef %5) local_unnamed_addr #13 {
  %7 = fsub double %3, %2
  %8 = sext i32 %5 to i64
  %9 = add nsw i64 %8, 7
  %10 = and i64 %9, -8
  %11 = add nsw i64 %10, 24
  %12 = uitofp i64 %11 to double
  %13 = fmul double %4, %12
  %14 = load i32, ptr @work_mem, align 4
  %15 = sext i32 %14 to i64
  %16 = shl nsw i64 %15, 10
  %17 = uitofp i64 %16 to double
  %18 = getelementptr inbounds nuw i8, ptr %0, i64 40
  store double %4, ptr %18, align 8
  %19 = load double, ptr @cpu_operator_cost, align 8
  %20 = fmul double %19, 2.000000e+00
  %21 = tail call double @llvm.fmuladd.f64(double %20, double %4, double %7)
  %22 = fcmp ogt double %13, %17
  br i1 %22, label %23, label %28

23:                                               ; preds = %6
  %24 = fmul double %13, 0x3F20000000000000
  %25 = tail call double @llvm.ceil.f64(double %24)
  %26 = load double, ptr @seq_page_cost, align 8
  %27 = tail call double @llvm.fmuladd.f64(double %26, double %25, double %21)
  br label %28

28:                                               ; preds = %23, %6
  %.0 = phi double [ %27, %23 ], [ %21, %6 ]
  %29 = load i8, ptr @enable_material, align 1, !range !4, !noundef !5
  %30 = xor i8 %29, 1
  %not. = zext nneg i8 %30 to i32
  %31 = add i32 %1, %not.
  %32 = getelementptr inbounds nuw i8, ptr %0, i64 48
  store i32 %31, ptr %32, align 8
  %33 = getelementptr inbounds nuw i8, ptr %0, i64 56
  store double %2, ptr %33, align 8
  %34 = fadd double %2, %.0
  %35 = getelementptr inbounds nuw i8, ptr %0, i64 64
  store double %34, ptr %35, align 8
  ret void
}